; Function Attrs: nofree norecurse nosync nounwind memory(argmem: write) uwtable
define hidden void @timelib_date_from_isodate(i64 noundef %0, i64 noundef %1, i64 noundef %2, ptr noundef writeonly captures(none) initializes((0, 8)) %3, ptr noundef writeonly captures(none) %4, ptr noundef writeonly captures(none) %5) local_unnamed_addr #2 {
  %7 = srem i64 %0, 400
  %8 = srem i64 %0, 100
  %9 = and i64 %0, 3
  %10 = icmp eq i64 %9, 0
  br i1 %10, label %11, label %13

11:                                               ; preds = %6
  %.not.i.i.i = icmp ne i64 %8, 0
  %12 = icmp eq i64 %7, 0
  %or.cond.i.i.i = or i1 %.not.i.i.i, %12
  br i1 %or.cond.i.i.i, label %timelib_daynr_from_weeknr.exit, label %13

13:                                               ; preds = %11, %6
  br label %timelib_daynr_from_weeknr.exit

timelib_daynr_from_weeknr.exit:                   ; preds = %11, %13
  %m_table_leap.pn.i.i.i = phi ptr [ @m_table_common, %13 ], [ @m_table_leap, %11 ]
  %14 = icmp slt i64 %8, 0
  %15 = select i1 %14, i64 100, i64 0
  %spec.select.i17.i.i.i = add nsw i64 %15, %8
  %16 = icmp slt i64 %7, 0
  %17 = select i1 %16, i64 400, i64 0
  %spec.select.i.i.i.i = add nsw i64 %17, %7
  %.lhs.trunc.i.i.i = trunc nsw i64 %spec.select.i.i.i.i to i16
  %18 = udiv i16 %.lhs.trunc.i.i.i, 100
  %19 = shl nuw nsw i16 %18, 1
  %20 = zext nneg i16 %19 to i64
  %.in.i.i.i = getelementptr inbounds nuw i8, ptr %m_table_leap.pn.i.i.i, i64 4
  %21 = load i32, ptr %.in.i.i.i, align 4, !tbaa !4
  %22 = sext i32 %21 to i64
  %23 = lshr i64 %spec.select.i17.i.i.i, 2
  %24 = add nuw nsw i64 %spec.select.i17.i.i.i, 7
  %25 = add nuw nsw i64 %24, %23
  %26 = sub nuw nsw i64 %25, %20
  %27 = add nsw i64 %26, %22
  %28 = srem i64 %27, 7
  %29 = icmp slt i64 %28, 0
  %30 = select i1 %29, i64 7, i64 0
  %spec.select.i18.i.i.i = add nsw i64 %30, %28
  %31 = icmp sgt i64 %spec.select.i18.i.i.i, 4
  %32 = add nsw i64 %spec.select.i18.i.i.i, -7
  %33 = select i1 %31, i64 %32, i64 %spec.select.i18.i.i.i
  %34 = mul i64 %1, 7
  %35 = add i64 %34, -6
  %36 = add i64 %35, %2
  %37 = sub i64 %36, %33
  store i64 %0, ptr %3, align 8, !tbaa !8
  br i1 %10, label %38, label %40

38:                                               ; preds = %timelib_daynr_from_weeknr.exit
  %.not = icmp ne i64 %8, 0
  %39 = icmp eq i64 %7, 0
  %spec.select = or i1 %.not, %39
  br label %40

40:                                               ; preds = %38, %timelib_daynr_from_weeknr.exit
  %41 = phi i1 [ false, %timelib_daynr_from_weeknr.exit ], [ %spec.select, %38 ]
  %42 = icmp slt i64 %37, 1
  br i1 %42, label %.lr.ph, label %.preheader

..preheader_crit_edge:                            ; preds = %.thread39
  store i64 %45, ptr %3, align 8, !tbaa !8
  br label %.preheader

.preheader:                                       ; preds = %..preheader_crit_edge, %40
  %.promoted50 = phi i64 [ %45, %..preheader_crit_edge ], [ %0, %40 ]
  %.032.lcssa = phi i64 [ %55, %..preheader_crit_edge ], [ %37, %40 ]
  %.0.lcssa = phi i1 [ %53, %..preheader_crit_edge ], [ %41, %40 ]
  %43 = select i1 %.0.lcssa, i64 366, i64 365
  %44 = icmp samesign ugt i64 %.032.lcssa, %43
  br i1 %44, label %.lr.ph47, label %71

.lr.ph:                                           ; preds = %40, %.thread39
  %.fr = phi i64 [ %45, %.thread39 ], [ %0, %40 ]
  %.03244 = phi i64 [ %55, %.thread39 ], [ %37, %40 ]
  %45 = add i64 %.fr, -1
  %46 = and i64 %45, 3
  %47 = icmp eq i64 %46, 0
  br i1 %47, label %48, label %.thread39

48:                                               ; preds = %.lr.ph
  %49 = srem i64 %45, 100
  %.not37 = icmp eq i64 %49, 0
  br i1 %.not37, label %50, label %.thread39

50:                                               ; preds = %48
  %51 = srem i64 %45, 400
  %52 = icmp eq i64 %51, 0
  %spec.select41 = select i1 %52, i64 366, i64 365
  br label %.thread39

.thread39:                                        ; preds = %50, %48, %.lr.ph
  %53 = phi i1 [ false, %.lr.ph ], [ true, %48 ], [ %52, %50 ]
  %54 = phi i64 [ 365, %.lr.ph ], [ 366, %48 ], [ %spec.select41, %50 ]
  %55 = add nsw i64 %54, %.03244
  %56 = icmp slt i64 %55, 1
  br i1 %56, label %.lr.ph, label %..preheader_crit_edge

.lr.ph47:                                         ; preds = %.preheader, %.thread69
  %57 = phi i64 [ %60, %.thread69 ], [ %.promoted50, %.preheader ]
  %58 = phi i64 [ %69, %.thread69 ], [ %43, %.preheader ]
  %.13346 = phi i64 [ %59, %.thread69 ], [ %.032.lcssa, %.preheader ]
  %59 = sub nuw nsw i64 %.13346, %58
  %60 = add i64 %57, 1
  %61 = and i64 %60, 3
  %62 = icmp eq i64 %61, 0
  br i1 %62, label %63, label %.thread69

63:                                               ; preds = %.lr.ph47
  %64 = srem i64 %60, 100
  %.not36 = icmp eq i64 %64, 0
  br i1 %.not36, label %65, label %.thread69

65:                                               ; preds = %63
  %66 = srem i64 %60, 400
  %67 = icmp eq i64 %66, 0
  %spec.select78 = select i1 %67, i64 366, i64 365
  br label %.thread69

.thread69:                                        ; preds = %65, %63, %.lr.ph47
  %68 = phi i1 [ false, %.lr.ph47 ], [ true, %63 ], [ %67, %65 ]
  %69 = phi i64 [ 365, %.lr.ph47 ], [ 366, %63 ], [ %spec.select78, %65 ]
  %70 = icmp sgt i64 %59, %69
  br i1 %70, label %.lr.ph47, label %._crit_edge

._crit_edge:                                      ; preds = %.thread69
  store i64 %60, ptr %3, align 8, !tbaa !8
  br label %71

71:                                               ; preds = %._crit_edge, %.preheader
  %.133.lcssa = phi i64 [ %59, %._crit_edge ], [ %.032.lcssa, %.preheader ]
  %.1.lcssa = phi i1 [ %68, %._crit_edge ], [ %.0.lcssa, %.preheader ]
  %72 = select i1 %.1.lcssa, ptr @ml_table_leap, ptr @ml_table_common
  %73 = icmp sgt i64 %.133.lcssa, 31
  br i1 %73, label %.lr.ph55, label %._crit_edge56

.lr.ph55:                                         ; preds = %71, %.lr.ph55
  %74 = phi i64 [ %79, %.lr.ph55 ], [ 31, %71 ]
  %.253 = phi i64 [ %75, %.lr.ph55 ], [ %.133.lcssa, %71 ]
  %storemerge52 = phi i64 [ %76, %.lr.ph55 ], [ 1, %71 ]
  %75 = sub i64 %.253, %74
  %76 = add i64 %storemerge52, 1
  %77 = getelementptr inbounds i32, ptr %72, i64 %76
  %78 = load i32, ptr %77, align 4, !tbaa !4
  %79 = sext i32 %78 to i64
  %80 = icmp sgt i64 %75, %79
  br i1 %80, label %.lr.ph55, label %._crit_edge56

._crit_edge56:                                    ; preds = %.lr.ph55, %71
  %storemerge.lcssa = phi i64 [ 1, %71 ], [ %76, %.lr.ph55 ]
  %.2.lcssa = phi i64 [ %.133.lcssa, %71 ], [ %75, %.lr.ph55 ]
  store i64 %storemerge.lcssa, ptr %4, align 8, !tbaa !8
  store i64 %.2.lcssa, ptr %5, align 8, !tbaa !8
  ret void
}